; Function Attrs: uwtable
define noundef zeroext i1 @_ZThn16_N3zmq12udp_engine_t13restart_inputEv(ptr noundef %0) unnamed_addr #13 align 2 {
  %2 = getelementptr inbounds nuw i8, ptr %0, i64 17861
  %3 = load i8, ptr %2, align 1, !tbaa !66, !range !97, !noundef !98
  %4 = trunc nuw i8 %3 to i1
  br i1 %4, label %5, label %_ZN3zmq12udp_engine_t13restart_inputEv.exit

5:                                                ; preds = %1
  %6 = getelementptr inbounds i8, ptr %0, i64 -16
  %7 = getelementptr inbounds nuw i8, ptr %0, i64 96
  %8 = load ptr, ptr %7, align 8, !tbaa !110
  tail call void @_ZN3zmq11io_object_t10set_pollinEPv(ptr noundef nonnull align 8 dereferenceable(17880) %6, ptr noundef %8)
  tail call void @_ZN3zmq12udp_engine_t8in_eventEv(ptr noundef nonnull align 8 dereferenceable(17880) %6)
  br label %_ZN3zmq12udp_engine_t13restart_inputEv.exit

_ZN3zmq12udp_engine_t13restart_inputEv.exit:      ; preds = %1, %5
  ret i1 true
}